target datalayout = "e-m:e-p270:32:32-p271:32:32-p272:64:64-i64:64-i128:128-f80:128-n8:16:32:64-S128"
target triple = "x86_64-pc-linux-gnu"

; Function Attrs: nounwind uwtable
define internal ptr @socket_dup(ptr noundef %0, ptr noundef %1) #0 {
  %3 = alloca ptr, align 8
  %4 = alloca ptr, align 8
  %5 = alloca ptr, align 8
  %6 = alloca i32, align 4
  %7 = alloca i32, align 4
  %8 = alloca ptr, align 8
  %9 = alloca i32, align 4
  store ptr %0, ptr %4, align 8, !tbaa !3
  store ptr %1, ptr %5, align 8, !tbaa !3
  call void @llvm.lifetime.start.p0(i64 4, ptr %6) #10
  call void @llvm.lifetime.start.p0(i64 4, ptr %7) #10
  call void @llvm.lifetime.start.p0(i64 8, ptr %8) #10
  %10 = load ptr, ptr %5, align 8, !tbaa !3
  %11 = call i64 @PyLong_AsLong(ptr noundef %10)
  %12 = trunc i64 %11 to i32
  store i32 %12, ptr %6, align 4, !tbaa !15
  %13 = load i32, ptr %6, align 4, !tbaa !15
  %14 = icmp eq i32 %13, -1
  br i1 %14, label %15, label %19

15:                                               ; preds = %2
  %16 = call ptr @PyErr_Occurred()
  %17 = icmp ne ptr %16, null
  br i1 %17, label %18, label %19

18:                                               ; preds = %15
  store ptr null, ptr %3, align 8
  store i32 1, ptr %9, align 4
  br label %36

19:                                               ; preds = %15, %2
  %20 = load i32, ptr %6, align 4, !tbaa !15
  %21 = call i32 @_Py_dup(i32 noundef %20)
  store i32 %21, ptr %7, align 4, !tbaa !15
  %22 = load i32, ptr %7, align 4, !tbaa !15
  %23 = icmp eq i32 %22, -1
  br i1 %23, label %24, label %25

24:                                               ; preds = %19
  store ptr null, ptr %3, align 8
  store i32 1, ptr %9, align 4
  br label %36

25:                                               ; preds = %19
  %26 = load i32, ptr %7, align 4, !tbaa !15
  %27 = sext i32 %26 to i64
  %28 = call ptr @PyLong_FromLong(i64 noundef %27)
  store ptr %28, ptr %8, align 8, !tbaa !3
  %29 = load ptr, ptr %8, align 8, !tbaa !3
  %30 = icmp eq ptr %29, null
  br i1 %30, label %31, label %34

31:                                               ; preds = %25
  %32 = load i32, ptr %7, align 4, !tbaa !15
  %33 = call i32 @close(i32 noundef %32)
  br label %34

34:                                               ; preds = %31, %25
  %35 = load ptr, ptr %8, align 8, !tbaa !3
  store ptr %35, ptr %3, align 8
  store i32 1, ptr %9, align 4
  br label %36

36:                                               ; preds = %34, %24, %18
  call void @llvm.lifetime.end.p0(i64 8, ptr %8) #10
  call void @llvm.lifetime.end.p0(i64 4, ptr %7) #10
  call void @llvm.lifetime.end.p0(i64 4, ptr %6) #10
  %37 = load ptr, ptr %3, align 8
  ret ptr %37
}