; Function Attrs: nounwind uwtable
define internal ptr @socket_dup(ptr readnone captures(none) %0, ptr noundef %1) #0 {
  %3 = tail call i64 @PyLong_AsLong(ptr noundef %1) #13
  %4 = trunc i64 %3 to i32
  %5 = icmp eq i32 %4, -1
  br i1 %5, label %6, label %8

6:                                                ; preds = %2
  %7 = tail call ptr @PyErr_Occurred() #13
  %.not = icmp eq ptr %7, null
  br i1 %.not, label %8, label %17

8:                                                ; preds = %6, %2
  %9 = tail call i32 @_Py_dup(i32 noundef %4) #13
  %10 = icmp eq i32 %9, -1
  br i1 %10, label %17, label %11

11:                                               ; preds = %8
  %12 = sext i32 %9 to i64
  %13 = tail call ptr @PyLong_FromLong(i64 noundef %12) #13
  %14 = icmp eq ptr %13, null
  br i1 %14, label %15, label %17

15:                                               ; preds = %11
  %16 = tail call i32 @close(i32 noundef %9) #13
  br label %17

17:                                               ; preds = %11, %15, %8, %6
  %.0 = phi ptr [ null, %6 ], [ null, %8 ], [ null, %15 ], [ %13, %11 ]
  ret ptr %.0
}